target datalayout = "e-m:e-p270:32:32-p271:32:32-p272:64:64-i64:64-i128:128-f80:128-n8:16:32:64-S128"
target triple = "x86_64-pc-linux-gnu"

%struct.AVCodecContext = type { ptr, i32, i32, ptr, i32, i32, ptr, ptr, ptr, i64, i32, i32, ptr, i32, %struct.AVRational, %struct.AVRational, %struct.AVRational, i32, i32, i32, i32, i32, %struct.AVRational, i32, i32, i32, i32, i32, i32, i32, i32, i32, i32, i32, ptr, ptr, i32, float, float, float, float, float, float, float, float, float, i32, i32, i32, i32, i32, i32, i32, i32, i32, i32, i32, i32, ptr, ptr, ptr, i32, i32, i32, i32, i32, i32, i32, i32, i32, i32, %struct.AVChannelLayout, i32, i32, i32, i32, i32, i32, i32, i32, ptr, i32, i32, i32, float, float, i32, i32, i32, i32, i32, ptr, i64, i64, float, float, i32, i32, ptr, ptr, i32, i32, i32, i32, i32, ptr, ptr, ptr, ptr, i32, i32, [8 x i64], i32, i32, i32, i32, i32, i32, i32, ptr, ptr, i32, i32, i32, i32, i32, i32, i32, i32, i32, i32, ptr, ptr, i32, i32, ptr, ptr, ptr, ptr, i32, i32, i64, i32, i32, i64, ptr, i64, ptr, i32, ptr, i32 }
%struct.AVRational = type { i32, i32 }
%struct.AVChannelLayout = type { i32, i32, %union.anon.1, ptr }
%union.anon.1 = type { i64 }
%struct.GetBitContext = type { ptr, ptr, i32, i32, i32 }

; Function Attrs: alwaysinline nounwind willreturn memory(none) uwtable
define internal i32 @av_bswap32(i32 noundef %0) #9 {
  %2 = alloca i32, align 4
  store i32 %0, ptr %2, align 4, !tbaa !62
  %3 = load i32, ptr %2, align 4, !tbaa !62
  %4 = shl i32 %3, 8
  %5 = and i32 %4, 65280
  %6 = load i32, ptr %2, align 4, !tbaa !62
  %7 = lshr i32 %6, 8
  %8 = and i32 %7, 255
  %9 = or i32 %5, %8
  %10 = shl i32 %9, 16
  %11 = load i32, ptr %2, align 4, !tbaa !62
  %12 = lshr i32 %11, 16
  %13 = shl i32 %12, 8
  %14 = and i32 %13, 65280
  %15 = load i32, ptr %2, align 4, !tbaa !62
  %16 = lshr i32 %15, 16
  %17 = lshr i32 %16, 8
  %18 = and i32 %17, 255
  %19 = or i32 %14, %18
  %20 = or i32 %10, %19
  ret i32 %20
}

; Function Attrs: inlinehint nounwind uwtable
define internal i32 @get_bits(ptr noundef %0, i32 noundef %1) #10 {
  %3 = alloca ptr, align 8
  %4 = alloca i32, align 4
  %5 = alloca i32, align 4
  %6 = alloca i32, align 4
  %7 = alloca i32, align 4
  %8 = alloca i32, align 4
  store ptr %0, ptr %3, align 8, !tbaa !96
  store i32 %1, ptr %4, align 4, !tbaa !62
  call void @llvm.lifetime.start.p0(i64 4, ptr %5) #11
  call void @llvm.lifetime.start.p0(i64 4, ptr %6) #11
  %9 = load ptr, ptr %3, align 8, !tbaa !96
  %10 = getelementptr inbounds nuw %struct.GetBitContext, ptr %9, i32 0, i32 2
  %11 = load i32, ptr %10, align 8, !tbaa !103
  store i32 %11, ptr %6, align 4, !tbaa !62
  call void @llvm.lifetime.start.p0(i64 4, ptr %7) #11
  call void @llvm.lifetime.start.p0(i64 4, ptr %8) #11
  %12 = load ptr, ptr %3, align 8, !tbaa !96
  %13 = getelementptr inbounds nuw %struct.GetBitContext, ptr %12, i32 0, i32 4
  %14 = load i32, ptr %13, align 8, !tbaa !101
  store i32 %14, ptr %8, align 4, !tbaa !62
  %15 = load ptr, ptr %3, align 8, !tbaa !96
  %16 = getelementptr inbounds nuw %struct.GetBitContext, ptr %15, i32 0, i32 0
  %17 = load ptr, ptr %16, align 8, !tbaa !98
  %18 = load i32, ptr %6, align 4, !tbaa !62
  %19 = lshr i32 %18, 3
  %20 = zext i32 %19 to i64
  %21 = getelementptr inbounds nuw i8, ptr %17, i64 %20
  %22 = load i32, ptr %21, align 1, !tbaa !51
  %23 = call i32 @av_bswap32(i32 noundef %22) #14
  %24 = load i32, ptr %6, align 4, !tbaa !62
  %25 = and i32 %24, 7
  %26 = shl i32 %23, %25
  %27 = lshr i32 %26, 0
  store i32 %27, ptr %7, align 4, !tbaa !62
  %28 = load i32, ptr %7, align 4, !tbaa !62
  %29 = load i32, ptr %4, align 4, !tbaa !62
  %30 = sub nsw i32 32, %29
  %31 = lshr i32 %28, %30
  store i32 %31, ptr %5, align 4, !tbaa !62
  %32 = load i32, ptr %8, align 4, !tbaa !62
  %33 = load i32, ptr %6, align 4, !tbaa !62
  %34 = load i32, ptr %4, align 4, !tbaa !62
  %35 = add i32 %33, %34
  %36 = icmp ugt i32 %32, %35
  br i1 %36, label %37, label %41

37:                                               ; preds = %2
  %38 = load i32, ptr %6, align 4, !tbaa !62
  %39 = load i32, ptr %4, align 4, !tbaa !62
  %40 = add i32 %38, %39
  br label %43

41:                                               ; preds = %2
  %42 = load i32, ptr %8, align 4, !tbaa !62
  br label %43

43:                                               ; preds = %41, %37
  %44 = phi i32 [ %40, %37 ], [ %42, %41 ]
  store i32 %44, ptr %6, align 4, !tbaa !62
  %45 = load i32, ptr %6, align 4, !tbaa !62
  %46 = load ptr, ptr %3, align 8, !tbaa !96
  %47 = getelementptr inbounds nuw %struct.GetBitContext, ptr %46, i32 0, i32 2
  store i32 %45, ptr %47, align 8, !tbaa !103
  %48 = load i32, ptr %5, align 4, !tbaa !62
  call void @llvm.lifetime.end.p0(i64 4, ptr %8) #11
  call void @llvm.lifetime.end.p0(i64 4, ptr %7) #11
  call void @llvm.lifetime.end.p0(i64 4, ptr %6) #11
  call void @llvm.lifetime.end.p0(i64 4, ptr %5) #11
  ret i32 %48
}

; Function Attrs: inlinehint nounwind uwtable
define internal i32 @init_get_bits(ptr noundef %0, ptr noundef %1, i32 noundef %2) #10 {
  %4 = alloca ptr, align 8
  %5 = alloca ptr, align 8
  %6 = alloca i32, align 4
  %7 = alloca i32, align 4
  %8 = alloca i32, align 4
  store ptr %0, ptr %4, align 8, !tbaa !96
  store ptr %1, ptr %5, align 8, !tbaa !60
  store i32 %2, ptr %6, align 4, !tbaa !62
  call void @llvm.lifetime.start.p0(i64 4, ptr %7) #11
  call void @llvm.lifetime.start.p0(i64 4, ptr %8) #11
  store i32 0, ptr %8, align 4, !tbaa !62
  %9 = load i32, ptr %6, align 4, !tbaa !62
  %10 = icmp sge i32 %9, 2147483135
  br i1 %10, label %17, label %11

11:                                               ; preds = %3
  %12 = load i32, ptr %6, align 4, !tbaa !62
  %13 = icmp slt i32 %12, 0
  br i1 %13, label %17, label %14

14:                                               ; preds = %11
  %15 = load ptr, ptr %5, align 8, !tbaa !60
  %16 = icmp ne ptr %15, null
  br i1 %16, label %18, label %17

17:                                               ; preds = %14, %11, %3
  store i32 0, ptr %6, align 4, !tbaa !62
  store ptr null, ptr %5, align 8, !tbaa !60
  store i32 -1094995529, ptr %8, align 4, !tbaa !62
  br label %18

18:                                               ; preds = %17, %14
  %19 = load i32, ptr %6, align 4, !tbaa !62
  %20 = add nsw i32 %19, 7
  %21 = ashr i32 %20, 3
  store i32 %21, ptr %7, align 4, !tbaa !62
  %22 = load ptr, ptr %5, align 8, !tbaa !60
  %23 = load ptr, ptr %4, align 8, !tbaa !96
  %24 = getelementptr inbounds nuw %struct.GetBitContext, ptr %23, i32 0, i32 0
  store ptr %22, ptr %24, align 8, !tbaa !98
  %25 = load i32, ptr %6, align 4, !tbaa !62
  %26 = load ptr, ptr %4, align 8, !tbaa !96
  %27 = getelementptr inbounds nuw %struct.GetBitContext, ptr %26, i32 0, i32 3
  store i32 %25, ptr %27, align 4, !tbaa !100
  %28 = load i32, ptr %6, align 4, !tbaa !62
  %29 = add nsw i32 %28, 8
  %30 = load ptr, ptr %4, align 8, !tbaa !96
  %31 = getelementptr inbounds nuw %struct.GetBitContext, ptr %30, i32 0, i32 4
  store i32 %29, ptr %31, align 8, !tbaa !101
  %32 = load ptr, ptr %5, align 8, !tbaa !60
  %33 = load i32, ptr %7, align 4, !tbaa !62
  %34 = sext i32 %33 to i64
  %35 = getelementptr inbounds i8, ptr %32, i64 %34
  %36 = load ptr, ptr %4, align 8, !tbaa !96
  %37 = getelementptr inbounds nuw %struct.GetBitContext, ptr %36, i32 0, i32 1
  store ptr %35, ptr %37, align 8, !tbaa !102
  %38 = load ptr, ptr %4, align 8, !tbaa !96
  %39 = getelementptr inbounds nuw %struct.GetBitContext, ptr %38, i32 0, i32 2
  store i32 0, ptr %39, align 8, !tbaa !103
  %40 = load i32, ptr %8, align 4, !tbaa !62
  call void @llvm.lifetime.end.p0(i64 4, ptr %8) #11
  call void @llvm.lifetime.end.p0(i64 4, ptr %7) #11
  ret i32 %40
}

; Function Attrs: alwaysinline nounwind willreturn memory(none) uwtable
define internal zeroext i16 @av_bswap16(i16 noundef zeroext %0) #9 {
  %2 = alloca i16, align 2
  store i16 %0, ptr %2, align 2, !tbaa !94
  %3 = load i16, ptr %2, align 2, !tbaa !94
  %4 = zext i16 %3 to i32
  %5 = ashr i32 %4, 8
  %6 = load i16, ptr %2, align 2, !tbaa !94
  %7 = zext i16 %6 to i32
  %8 = shl i32 %7, 8
  %9 = or i32 %5, %8
  %10 = trunc i32 %9 to i16
  store i16 %10, ptr %2, align 2, !tbaa !94
  %11 = load i16, ptr %2, align 2, !tbaa !94
  ret i16 %11
}

; Function Attrs: nounwind uwtable
define internal void @scale16be(ptr noundef %0, ptr noundef %1, ptr noundef %2, i32 noundef %3, i32 noundef %4) #1 {
  %6 = alloca ptr, align 8
  %7 = alloca ptr, align 8
  %8 = alloca ptr, align 8
  %9 = alloca i32, align 4
  %10 = alloca i32, align 4
  %11 = alloca i32, align 4
  %12 = alloca %struct.GetBitContext, align 8
  %13 = alloca i32, align 4
  store ptr %0, ptr %6, align 8, !tbaa !4
  store ptr %1, ptr %7, align 8, !tbaa !60
  store ptr %2, ptr %8, align 8, !tbaa !60
  store i32 %3, ptr %9, align 4, !tbaa !62
  store i32 %4, ptr %10, align 4, !tbaa !62
  call void @llvm.lifetime.start.p0(i64 4, ptr %11) #11
  %14 = load i32, ptr %10, align 4, !tbaa !62
  %15 = icmp ne i32 %14, 0
  br i1 %15, label %59, label %16

16:                                               ; preds = %5
  store i32 0, ptr %11, align 4, !tbaa !62
  br label %17

17:                                               ; preds = %55, %16
  %18 = load i32, ptr %11, align 4, !tbaa !62
  %19 = add nsw i32 %18, 1
  %20 = load i32, ptr %9, align 4, !tbaa !62
  %21 = icmp slt i32 %19, %20
  br i1 %21, label %22, label %58

22:                                               ; preds = %17
  %23 = load ptr, ptr %8, align 8, !tbaa !60
  %24 = load i32, ptr %11, align 4, !tbaa !62
  %25 = sext i32 %24 to i64
  %26 = getelementptr inbounds i8, ptr %23, i64 %25
  %27 = load i16, ptr %26, align 1, !tbaa !51
  %28 = call zeroext i16 @av_bswap16(i16 noundef zeroext %27) #14
  %29 = zext i16 %28 to i32
  %30 = load ptr, ptr %6, align 8, !tbaa !4
  %31 = getelementptr inbounds nuw %struct.AVCodecContext, ptr %30, i32 0, i32 114
  %32 = load i32, ptr %31, align 8, !tbaa !32
  %33 = sub nsw i32 16, %32
  %34 = shl i32 %29, %33
  %35 = load ptr, ptr %8, align 8, !tbaa !60
  %36 = load i32, ptr %11, align 4, !tbaa !62
  %37 = sext i32 %36 to i64
  %38 = getelementptr inbounds i8, ptr %35, i64 %37
  %39 = load i16, ptr %38, align 1, !tbaa !51
  %40 = call zeroext i16 @av_bswap16(i16 noundef zeroext %39) #14
  %41 = zext i16 %40 to i32
  %42 = load ptr, ptr %6, align 8, !tbaa !4
  %43 = getelementptr inbounds nuw %struct.AVCodecContext, ptr %42, i32 0, i32 114
  %44 = load i32, ptr %43, align 8, !tbaa !32
  %45 = mul nsw i32 2, %44
  %46 = sub nsw i32 %45, 16
  %47 = ashr i32 %41, %46
  %48 = or i32 %34, %47
  %49 = trunc i32 %48 to i16
  %50 = call zeroext i16 @av_bswap16(i16 noundef zeroext %49) #14
  %51 = load ptr, ptr %7, align 8, !tbaa !60
  %52 = load i32, ptr %11, align 4, !tbaa !62
  %53 = sext i32 %52 to i64
  %54 = getelementptr inbounds i8, ptr %51, i64 %53
  store i16 %50, ptr %54, align 1, !tbaa !51
  br label %55

55:                                               ; preds = %22
  %56 = load i32, ptr %11, align 4, !tbaa !62
  %57 = add nsw i32 %56, 2
  store i32 %57, ptr %11, align 4, !tbaa !62
  br label %17, !llvm.loop !90

58:                                               ; preds = %17
  br label %104

59:                                               ; preds = %5
  call void @llvm.lifetime.start.p0(i64 32, ptr %12) #11
  %60 = load ptr, ptr %8, align 8, !tbaa !60
  %61 = load i32, ptr %9, align 4, !tbaa !62
  %62 = mul nsw i32 %61, 8
  %63 = call i32 @init_get_bits(ptr noundef %12, ptr noundef %60, i32 noundef %62)
  store i32 0, ptr %11, align 4, !tbaa !62
  br label %64

64:                                               ; preds = %100, %59
  %65 = load i32, ptr %11, align 4, !tbaa !62
  %66 = load ptr, ptr %6, align 8, !tbaa !4
  %67 = getelementptr inbounds nuw %struct.AVCodecContext, ptr %66, i32 0, i32 18
  %68 = load i32, ptr %67, align 8, !tbaa !63
  %69 = load ptr, ptr %6, align 8, !tbaa !4
  %70 = getelementptr inbounds nuw %struct.AVCodecContext, ptr %69, i32 0, i32 19
  %71 = load i32, ptr %70, align 4, !tbaa !64
  %72 = mul nsw i32 %68, %71
  %73 = icmp slt i32 %65, %72
  br i1 %73, label %74, label %103

74:                                               ; preds = %64
  call void @llvm.lifetime.start.p0(i64 4, ptr %13) #11
  %75 = load ptr, ptr %6, align 8, !tbaa !4
  %76 = getelementptr inbounds nuw %struct.AVCodecContext, ptr %75, i32 0, i32 114
  %77 = load i32, ptr %76, align 8, !tbaa !32
  %78 = call i32 @get_bits(ptr noundef %12, i32 noundef %77)
  store i32 %78, ptr %13, align 4, !tbaa !62
  %79 = load i32, ptr %13, align 4, !tbaa !62
  %80 = load ptr, ptr %6, align 8, !tbaa !4
  %81 = getelementptr inbounds nuw %struct.AVCodecContext, ptr %80, i32 0, i32 114
  %82 = load i32, ptr %81, align 8, !tbaa !32
  %83 = sub nsw i32 16, %82
  %84 = shl i32 %79, %83
  %85 = load i32, ptr %13, align 4, !tbaa !62
  %86 = load ptr, ptr %6, align 8, !tbaa !4
  %87 = getelementptr inbounds nuw %struct.AVCodecContext, ptr %86, i32 0, i32 114
  %88 = load i32, ptr %87, align 8, !tbaa !32
  %89 = mul nsw i32 2, %88
  %90 = sub nsw i32 %89, 16
  %91 = ashr i32 %85, %90
  %92 = or i32 %84, %91
  %93 = trunc i32 %92 to i16
  %94 = call zeroext i16 @av_bswap16(i16 noundef zeroext %93) #14
  %95 = load ptr, ptr %7, align 8, !tbaa !60
  %96 = load i32, ptr %11, align 4, !tbaa !62
  %97 = mul nsw i32 %96, 2
  %98 = sext i32 %97 to i64
  %99 = getelementptr inbounds i8, ptr %95, i64 %98
  store i16 %94, ptr %99, align 1, !tbaa !51
  call void @llvm.lifetime.end.p0(i64 4, ptr %13) #11
  br label %100

100:                                              ; preds = %74
  %101 = load i32, ptr %11, align 4, !tbaa !62
  %102 = add nsw i32 %101, 1
  store i32 %102, ptr %11, align 4, !tbaa !62
  br label %64, !llvm.loop !91

103:                                              ; preds = %64
  call void @llvm.lifetime.end.p0(i64 32, ptr %12) #11
  br label %104

104:                                              ; preds = %103, %58
  call void @llvm.lifetime.end.p0(i64 4, ptr %11) #11
  ret void
}