; Function Attrs: nofree norecurse nosync nounwind memory(argmem: readwrite) uwtable
define internal fastcc void @scale16be(ptr noundef readonly captures(none) %0, ptr noundef writeonly captures(none) %1, ptr noundef readonly captures(address_is_null) %2, i32 noundef %3, i32 noundef range(i32 0, 2) %4) unnamed_addr #5 {
  %.not = icmp eq i32 %4, 0
  br i1 %.not, label %.preheader, label %26

.preheader:                                       ; preds = %5
  %6 = icmp sgt i32 %3, 1
  br i1 %6, label %.lr.ph28, label %.loopexit

.lr.ph28:                                         ; preds = %.preheader
  %7 = getelementptr inbounds nuw i8, ptr %0, i64 648
  %8 = zext nneg i32 %3 to i64
  br label %9

9:                                                ; preds = %.lr.ph28, %9
  %indvars.iv31 = phi i64 [ 0, %.lr.ph28 ], [ %indvars.iv.next32, %9 ]
  %10 = getelementptr inbounds nuw i8, ptr %2, i64 %indvars.iv31
  %11 = load i16, ptr %10, align 1, !tbaa !62
  %12 = tail call i16 @llvm.bswap.i16(i16 %11)
  %13 = zext i16 %12 to i32
  %14 = load i32, ptr %7, align 8, !tbaa !28
  %15 = sub nsw i32 16, %14
  %16 = shl i32 %13, %15
  %17 = shl nsw i32 %14, 1
  %18 = add nsw i32 %17, -16
  %19 = lshr i32 %13, %18
  %20 = or i32 %19, %16
  %21 = trunc i32 %20 to i16
  %22 = tail call i16 @llvm.bswap.i16(i16 %21)
  %23 = getelementptr inbounds nuw i8, ptr %1, i64 %indvars.iv31
  store i16 %22, ptr %23, align 1, !tbaa !62
  %indvars.iv.next32 = add nuw nsw i64 %indvars.iv31, 2
  %24 = or disjoint i64 %indvars.iv.next32, 1
  %25 = icmp samesign ult i64 %24, %8
  br i1 %25, label %9, label %.loopexit, !llvm.loop !79

26:                                               ; preds = %5
  %27 = shl nsw i32 %3, 3
  %or.cond.i = icmp ult i32 %27, 2147483135
  %28 = icmp ne ptr %2, null
  %or.cond3.i = and i1 %28, %or.cond.i
  %29 = add nuw nsw i32 %27, 8
  %30 = select i1 %or.cond3.i, i32 %29, i32 8
  %31 = getelementptr inbounds nuw i8, ptr %0, i64 112
  %32 = getelementptr inbounds nuw i8, ptr %0, i64 116
  %33 = load i32, ptr %31, align 8, !tbaa !49
  %34 = load i32, ptr %32, align 4, !tbaa !50
  %35 = mul nsw i32 %34, %33
  %36 = icmp sgt i32 %35, 0
  br i1 %36, label %.lr.ph, label %.loopexit

.lr.ph:                                           ; preds = %26
  %37 = getelementptr inbounds nuw i8, ptr %0, i64 648
  br label %38

38:                                               ; preds = %.lr.ph, %38
  %indvars.iv = phi i64 [ 0, %.lr.ph ], [ %indvars.iv.next, %38 ]
  %.sroa.5.025 = phi i32 [ 0, %.lr.ph ], [ %50, %38 ]
  %39 = load i32, ptr %37, align 8, !tbaa !28
  %40 = lshr i32 %.sroa.5.025, 3
  %41 = zext nneg i32 %40 to i64
  %42 = getelementptr inbounds nuw i8, ptr %2, i64 %41
  %43 = load i32, ptr %42, align 1, !tbaa !62
  %44 = tail call i32 @llvm.bswap.i32(i32 %43)
  %45 = and i32 %.sroa.5.025, 7
  %46 = shl i32 %44, %45
  %47 = sub nsw i32 32, %39
  %48 = lshr i32 %46, %47
  %49 = add i32 %39, %.sroa.5.025
  %50 = tail call i32 @llvm.umin.i32(i32 %30, i32 %49)
  %51 = sub nsw i32 16, %39
  %52 = shl i32 %48, %51
  %53 = shl nsw i32 %39, 1
  %54 = add nsw i32 %53, -16
  %55 = ashr i32 %48, %54
  %56 = or i32 %52, %55
  %57 = trunc i32 %56 to i16
  %58 = tail call i16 @llvm.bswap.i16(i16 %57)
  %59 = shl nuw nsw i64 %indvars.iv, 1
  %60 = getelementptr inbounds nuw i8, ptr %1, i64 %59
  store i16 %58, ptr %60, align 1, !tbaa !62
  %indvars.iv.next = add nuw nsw i64 %indvars.iv, 1
  %61 = load i32, ptr %31, align 8, !tbaa !49
  %62 = load i32, ptr %32, align 4, !tbaa !50
  %63 = mul nsw i32 %62, %61
  %64 = sext i32 %63 to i64
  %65 = icmp slt i64 %indvars.iv.next, %64
  br i1 %65, label %38, label %.loopexit, !llvm.loop !80

.loopexit:                                        ; preds = %38, %9, %26, %.preheader
  ret void
}